Certificate:
    Data:
        Version: 3 (0x2)
        Serial Number: 3 (0x3)
        Signature Algorithm: sha256WithRSAEncryption
        Issuer: C=IR, ST=Tehran, L=Tehran, O=Hamrahkish, OU=IT, CN=ZoomID/emailAddress=keyvan@hamrahkish.com
        Validity
            Not Before: May  1 08:12:50 2021 GMT
            Not After : May  1 08:12:50 2022 GMT
        Subject: C=IR, ST=Tehran, O=Hamrahkish, OU=IT, CN=Kamran/emailAddress=kamran@hamrahkish.com
        Subject Public Key Info:
            Public Key Algorithm: rsaEncryption
                RSA Public-Key: (2048 bit)
                Modulus:
                    00:db:04:e6:04:02:2a:4a:40:21:c2:fd:4e:44:17:
                    d7:47:99:f8:a3:78:8f:85:7f:23:c4:15:d2:24:ce:
                    2f:09:c8:76:e5:1e:e7:e6:89:69:1a:20:83:fa:8e:
                    c6:47:9f:28:ad:49:48:cf:e3:84:ca:b3:2f:8d:74:
                    c5:98:70:bd:28:b0:a9:71:cd:db:c8:ed:ae:6b:9a:
                    a2:b7:51:dc:a5:26:2d:e8:4c:4e:46:0c:15:54:0a:
                    38:18:55:59:bc:f8:b9:3b:61:26:4c:eb:1d:83:b9:
                    8f:bf:78:ba:f1:53:02:76:f3:db:43:ae:c1:5c:82:
                    28:bc:0b:77:25:7a:7d:a0:80:cd:5b:2e:5d:e5:f9:
                    29:45:7e:8d:7b:6e:4b:96:11:db:ab:ac:28:d7:0b:
                    4c:c5:6f:73:2a:c2:ac:13:b5:00:3f:0b:0f:d2:02:
                    0f:e9:f8:5c:0d:ef:ad:56:1e:cb:5a:47:7a:57:c6:
                    9e:e9:68:72:db:c2:d7:84:2b:88:a8:e9:2a:12:93:
                    91:34:47:77:aa:5a:fa:95:c0:0e:ca:bb:0e:27:e7:
                    07:33:49:b1:c7:dd:07:ac:33:fc:22:cb:2b:d1:65:
                    c1:ae:6c:54:84:93:17:39:e3:3b:30:ce:a1:5e:f3:
                    63:46:a9:43:41:f1:63:97:5e:fa:cd:53:11:cb:b1:
                    91:b7
                Exponent: 65537 (0x10001)
        X509v3 extensions:
            X509v3 Basic Constraints: 
                CA:FALSE
            Netscape Comment: 
                OpenSSL Generated Certificate
            X509v3 Subject Key Identifier: 
                AA:76:25:49:0C:B9:84:C9:FD:70:B5:04:DC:7B:08:C2:DB:1D:1C:66
            X509v3 Authority Key Identifier: 
                keyid:F5:10:00:78:01:05:A9:18:35:44:11:AE:51:C5:3C:2B:4B:F4:4A:1A

    Signature Algorithm: sha256WithRSAEncryption
         3a:cc:f3:f1:f7:18:78:61:0a:b6:eb:fb:27:01:e3:52:77:fa:
         92:d5:d2:10:25:b9:ae:c5:c0:cf:a5:17:de:8e:3d:1b:ee:ec:
         bc:42:79:c6:aa:1c:dd:bb:c8:04:e2:37:58:05:75:19:b9:5e:
         9d:31:a3:5f:43:ec:d9:94:af:c2:35:77:7e:94:d1:33:6d:ec:
         e6:28:37:ca:4b:95:ca:1c:09:10:97:29:ac:f0:c3:a6:44:71:
         66:b2:ce:e4:a8:5b:8d:82:b6:df:bb:2f:59:ae:71:b0:71:f8:
         8f:42:c2:33:cd:cb:bb:8e:8b:b9:d7:fb:bc:66:b2:ba:8c:b5:
         76:8e:38:d6:99:ba:7e:e8:25:ca:a6:b8:eb:a0:ca:e4:6c:ea:
         47:70:23:5f:55:8a:a3:4b:e0:1a:eb:02:a4:64:69:0d:49:28:
         60:27:8f:7a:fc:98:62:07:c3:84:fe:cb:ba:2c:f2:cf:4a:8d:
         e2:2b:77:5d:84:5c:13:bb:93:0b:2f:41:42:e1:aa:f3:53:9b:
         96:38:7e:72:89:ca:ed:f2:1d:1f:5b:c9:75:c3:86:0c:70:b3:
         95:39:e9:c8:1c:97:c0:dc:ef:2b:9a:54:37:05:70:38:2a:7f:
         b7:01:fb:a0:0e:e5:59:11:d6:f8:88:0e:9c:c1:2c:67:6a:1b:
         5b:87:d9:27
-----BEGIN CERTIFICATE-----
MIID9jCCAt6gAwIBAgIBAzANBgkqhkiG9w0BAQsFADCBiDELMAkGA1UEBhMCSVIx
DzANBgNVBAgMBlRlaHJhbjEPMA0GA1UEBwwGVGVocmFuMRMwEQYDVQQKDApIYW1y
YWhraXNoMQswCQYDVQQLDAJJVDEPMA0GA1UEAwwGWm9vbUlEMSQwIgYJKoZIhvcN
AQkBFhVrZXl2YW5AaGFtcmFoa2lzaC5jb20wHhcNMjEwNTAxMDgxMjUwWhcNMjIw
NTAxMDgxMjUwWjB3MQswCQYDVQQGEwJJUjEPMA0GA1UECAwGVGVocmFuMRMwEQYD
VQQKDApIYW1yYWhraXNoMQswCQYDVQQLDAJJVDEPMA0GA1UEAwwGS2FtcmFuMSQw
IgYJKoZIhvcNAQkBFhVrYW1yYW5AaGFtcmFoa2lzaC5jb20wggEiMA0GCSqGSIb3
DQEBAQUAA4IBDwAwggEKAoIBAQDbBOYEAipKQCHC/U5EF9dHmfijeI+FfyPEFdIk
zi8JyHblHufmiWkaIIP6jsZHnyitSUjP44TKsy+NdMWYcL0osKlxzdvI7a5rmqK3
UdylJi3oTE5GDBVUCjgYVVm8+Lk7YSZM6x2DuY+/eLrxUwJ289tDrsFcgii8C3cl
en2ggM1bLl3l+SlFfo17bkuWEdurrCjXC0zFb3MqwqwTtQA/Cw/SAg/p+FwN761W
HstaR3pXxp7paHLbwteEK4io6SoSk5E0R3eqWvqVwA7Kuw4n5wczSbHH3QesM/wi
yyvRZcGubFSEkxc54zswzqFe82NGqUNB8WOXXvrNUxHLsZG3AgMBAAGjezB5MAkG
A1UdEwQCMAAwLAYJYIZIAYb4QgENBB8WHU9wZW5TU0wgR2VuZXJhdGVkIENlcnRp
ZmljYXRlMB0GA1UdDgQWBBSqdiVJDLmEyf1wtQTcewjC2x0cZjAfBgNVHSMEGDAW
gBT1EAB4AQWpGDVEEa5RxTwrS/RKGjANBgkqhkiG9w0BAQsFAAOCAQEAOszz8fcY
eGEKtuv7JwHjUnf6ktXSECW5rsXAz6UX3o49G+7svEJ5xqoc3bvIBOI3WAV1Gble
nTGjX0Ps2ZSvwjV3fpTRM23s5ig3ykuVyhwJEJcprPDDpkRxZrLO5KhbjYK237sv
Wa5xsHH4j0LCM83Lu46Ludf7vGayuoy1do441pm6fuglyqa466DK5GzqR3AjX1WK
o0vgGusCpGRpDUkoYCePevyYYgfDhP7Luizyz0qN4it3XYRcE7uTCy9BQuGq81Ob
ljh+conK7fIdH1vJdcOGDHCzlTnpyByXwNzvK5pUNwVwOCp/twH7oA7lWRHW+IgO
nMEsZ2obW4fZJw==
-----END CERTIFICATE-----
