Certificate:
    Data:
        Version: 3 (0x2)
        Serial Number: 2 (0x2)
        Signature Algorithm: sha256WithRSAEncryption
        Issuer: C=IR, ST=Tehran, L=Tehran, O=Hamrahkish, OU=IT, CN=ZoomID/emailAddress=keyvan@hamrahkish.com
        Validity
            Not Before: Apr 19 06:32:29 2021 GMT
            Not After : Apr 19 06:32:29 2022 GMT
        Subject: C=IR, ST=Tehran, O=Hamrahkish, OU=IT, CN=keyvan/emailAddress=keyvan@hamrahkish.com
        Subject Public Key Info:
            Public Key Algorithm: rsaEncryption
                RSA Public-Key: (2048 bit)
                Modulus:
                    00:b8:c9:f5:11:a0:d3:fd:aa:cf:eb:bb:fb:94:96:
                    c7:ae:57:e9:ca:97:88:6a:04:02:50:3d:e0:5b:67:
                    2d:50:7a:e2:cc:93:dc:b3:71:57:f2:f4:bf:d4:b6:
                    dc:2d:5a:ec:28:a3:7e:40:49:c9:48:78:5d:78:82:
                    f3:5d:61:63:95:33:0f:e1:01:35:03:76:e3:2b:42:
                    de:20:2b:76:e2:47:dd:32:8b:6a:7f:46:fd:ce:c9:
                    67:65:34:00:88:74:ef:89:3c:ff:b7:d5:2f:1f:ae:
                    62:30:94:98:0a:78:ea:9a:15:11:8d:6f:24:31:82:
                    da:15:ea:01:d7:f5:5a:e8:91:cb:34:23:09:34:02:
                    e2:02:a1:af:b3:a9:b0:7b:8d:38:57:4e:ab:b0:40:
                    6a:f4:4d:8f:5e:c3:5c:99:ae:ae:ed:b1:c6:0e:84:
                    c8:1c:1e:3f:4d:98:8d:35:5b:71:aa:b2:36:67:e4:
                    61:d9:39:88:2f:44:73:68:c0:38:47:06:73:79:7d:
                    25:ab:fc:ed:c1:2a:bc:b4:ef:06:5f:b5:98:43:82:
                    db:23:37:91:b8:1d:ca:45:aa:d7:db:3c:a0:da:e0:
                    3b:e3:95:56:0b:aa:71:f2:36:9c:80:75:c9:92:5d:
                    be:89:c0:8d:ff:0c:f9:76:89:fd:7e:3a:08:b4:3b:
                    5e:a5
                Exponent: 65537 (0x10001)
        X509v3 extensions:
            X509v3 Basic Constraints: 
                CA:FALSE
            Netscape Comment: 
                OpenSSL Generated Certificate
            X509v3 Subject Key Identifier: 
                2D:07:E9:E6:AA:B0:44:92:5B:FE:46:80:70:6E:03:25:53:19:93:85
            X509v3 Authority Key Identifier: 
                keyid:F5:10:00:78:01:05:A9:18:35:44:11:AE:51:C5:3C:2B:4B:F4:4A:1A

    Signature Algorithm: sha256WithRSAEncryption
         91:64:d8:45:70:17:65:27:b7:ba:77:27:00:67:28:af:ca:3c:
         a3:ee:00:5c:2f:9b:e7:48:f5:4c:2b:e7:62:8b:12:5e:1f:a9:
         49:ce:0a:53:b0:ad:aa:63:8d:94:f3:10:bb:9c:ac:46:5c:19:
         0d:64:89:0c:fa:e3:ae:68:a2:c4:84:07:be:83:4d:c8:cd:02:
         ae:fe:2b:e4:6c:dd:5c:e0:19:83:31:07:2a:04:b8:b7:4a:47:
         55:2e:cf:9b:1e:bd:20:32:54:09:bf:6d:9b:04:9d:20:31:6d:
         8e:20:03:30:81:e7:8b:2f:ae:09:ed:ca:01:2e:a8:44:86:c6:
         f3:8b:37:b8:b9:e3:30:1d:ef:15:87:ad:c8:2d:1b:73:b1:22:
         c6:b7:91:08:5b:3a:b3:28:bc:58:2d:ed:ad:4b:3f:1b:ef:84:
         70:e7:16:19:aa:47:24:c3:80:5a:d0:18:6a:78:c9:0c:7d:aa:
         52:54:06:f7:5c:fe:aa:99:90:88:01:24:c1:bc:b4:30:7a:8a:
         a9:52:07:39:f0:1e:06:cb:11:08:f3:b7:f5:30:f9:8e:3e:e8:
         3f:43:2f:a7:5c:df:c7:4f:97:b1:9c:38:a2:57:e8:6c:f5:99:
         f7:a2:46:bf:bc:7b:b0:55:84:bb:31:1f:35:5e:35:b7:d6:b0:
         b3:a6:33:26
-----BEGIN CERTIFICATE-----
MIID9jCCAt6gAwIBAgIBAjANBgkqhkiG9w0BAQsFADCBiDELMAkGA1UEBhMCSVIx
DzANBgNVBAgMBlRlaHJhbjEPMA0GA1UEBwwGVGVocmFuMRMwEQYDVQQKDApIYW1y
YWhraXNoMQswCQYDVQQLDAJJVDEPMA0GA1UEAwwGWm9vbUlEMSQwIgYJKoZIhvcN
AQkBFhVrZXl2YW5AaGFtcmFoa2lzaC5jb20wHhcNMjEwNDE5MDYzMjI5WhcNMjIw
NDE5MDYzMjI5WjB3MQswCQYDVQQGEwJJUjEPMA0GA1UECAwGVGVocmFuMRMwEQYD
VQQKDApIYW1yYWhraXNoMQswCQYDVQQLDAJJVDEPMA0GA1UEAwwGa2V5dmFuMSQw
IgYJKoZIhvcNAQkBFhVrZXl2YW5AaGFtcmFoa2lzaC5jb20wggEiMA0GCSqGSIb3
DQEBAQUAA4IBDwAwggEKAoIBAQC4yfURoNP9qs/ru/uUlseuV+nKl4hqBAJQPeBb
Zy1QeuLMk9yzcVfy9L/UttwtWuwoo35ASclIeF14gvNdYWOVMw/hATUDduMrQt4g
K3biR90yi2p/Rv3OyWdlNACIdO+JPP+31S8frmIwlJgKeOqaFRGNbyQxgtoV6gHX
9Vrokcs0Iwk0AuICoa+zqbB7jThXTquwQGr0TY9ew1yZrq7tscYOhMgcHj9NmI01
W3GqsjZn5GHZOYgvRHNowDhHBnN5fSWr/O3BKry07wZftZhDgtsjN5G4HcpFqtfb
PKDa4DvjlVYLqnHyNpyAdcmSXb6JwI3/DPl2if1+Ogi0O16lAgMBAAGjezB5MAkG
A1UdEwQCMAAwLAYJYIZIAYb4QgENBB8WHU9wZW5TU0wgR2VuZXJhdGVkIENlcnRp
ZmljYXRlMB0GA1UdDgQWBBQtB+nmqrBEklv+RoBwbgMlUxmThTAfBgNVHSMEGDAW
gBT1EAB4AQWpGDVEEa5RxTwrS/RKGjANBgkqhkiG9w0BAQsFAAOCAQEAkWTYRXAX
ZSe3uncnAGcor8o8o+4AXC+b50j1TCvnYosSXh+pSc4KU7CtqmONlPMQu5ysRlwZ
DWSJDPrjrmiixIQHvoNNyM0Crv4r5GzdXOAZgzEHKgS4t0pHVS7Pmx69IDJUCb9t
mwSdIDFtjiADMIHniy+uCe3KAS6oRIbG84s3uLnjMB3vFYetyC0bc7EixreRCFs6
syi8WC3trUs/G++EcOcWGapHJMOAWtAYanjJDH2qUlQG91z+qpmQiAEkwby0MHqK
qVIHOfAeBssRCPO39TD5jj7oP0Mvp1zfx0+XsZw4olfobPWZ96JGv7x7sFWEuzEf
NV41t9aws6YzJg==
-----END CERTIFICATE-----
